; Function Attrs: mustprogress nofree nounwind willreturn memory(read, inaccessiblemem: none) uwtable
define dso_local noundef i32 @_ZNK7cmValue7CompareESt17basic_string_viewIcSt11char_traitsIcEE(ptr noundef nonnull readonly align 8 captures(none) dereferenceable(8) %0, i64 %1, ptr readonly %2) local_unnamed_addr #4 align 2 personality ptr @__gxx_personality_v0 {
  %4 = load ptr, ptr %0, align 8, !tbaa !7
  %.not = icmp eq ptr %4, null
  br i1 %.not, label %5, label %6

5:                                                ; preds = %3
  %.not1 = icmp ne ptr %2, null
  %spec.select = sext i1 %.not1 to i32
  br label %_ZNKSt17basic_string_viewIcSt11char_traitsIcEE7compareES2_.exit

6:                                                ; preds = %3
  %.not3 = icmp eq ptr %2, null
  br i1 %.not3, label %_ZNKSt17basic_string_viewIcSt11char_traitsIcEE7compareES2_.exit, label %7

7:                                                ; preds = %6
  %8 = getelementptr inbounds nuw i8, ptr %4, i64 8
  %9 = load i64, ptr %8, align 8, !tbaa !11
  %.sroa.speculated.i = tail call i64 @llvm.umin.i64(i64 %1, i64 %9)
  %10 = icmp eq i64 %.sroa.speculated.i, 0
  br i1 %10, label %_ZNSt11char_traitsIcE7compareEPKcS2_m.exit.thread.i, label %_ZNSt11char_traitsIcE7compareEPKcS2_m.exit.i

_ZNSt11char_traitsIcE7compareEPKcS2_m.exit.i:     ; preds = %7
  %11 = load ptr, ptr %4, align 8, !tbaa !16
  %12 = tail call i32 @memcmp(ptr noundef %11, ptr noundef nonnull %2, i64 noundef %.sroa.speculated.i) #11
  %13 = icmp eq i32 %12, 0
  br i1 %13, label %_ZNSt11char_traitsIcE7compareEPKcS2_m.exit.thread.i, label %_ZNKSt17basic_string_viewIcSt11char_traitsIcEE7compareES2_.exit

_ZNSt11char_traitsIcE7compareEPKcS2_m.exit.thread.i: ; preds = %_ZNSt11char_traitsIcE7compareEPKcS2_m.exit.i, %7
  %14 = sub i64 %9, %1
  %spec.select7.i.i = tail call i64 @llvm.smax.i64(i64 %14, i64 -2147483648)
  %.08.i.i = tail call i64 @llvm.smin.i64(i64 %spec.select7.i.i, i64 2147483647)
  %.0.i4.i = trunc nsw i64 %.08.i.i to i32
  br label %_ZNKSt17basic_string_viewIcSt11char_traitsIcEE7compareES2_.exit

_ZNKSt17basic_string_viewIcSt11char_traitsIcEE7compareES2_.exit: ; preds = %5, %_ZNSt11char_traitsIcE7compareEPKcS2_m.exit.thread.i, %_ZNSt11char_traitsIcE7compareEPKcS2_m.exit.i, %6
  %.0 = phi i32 [ 1, %6 ], [ %.0.i4.i, %_ZNSt11char_traitsIcE7compareEPKcS2_m.exit.thread.i ], [ %12, %_ZNSt11char_traitsIcE7compareEPKcS2_m.exit.i ], [ %spec.select, %5 ]
  ret i32 %.0
}